target datalayout = "e-m:e-p270:32:32-p271:32:32-p272:64:64-i64:64-i128:128-f80:128-n8:16:32:64-S128"
target triple = "x86_64-pc-linux-gnu"

@Curl_cfree = external global ptr, align 8

; Function Attrs: nounwind uwtable
define internal i32 @setstropt_userpwd(ptr noundef %0, ptr noundef %1, ptr noundef %2) #0 {
  %4 = alloca i32, align 4
  %5 = alloca ptr, align 8
  %6 = alloca ptr, align 8
  %7 = alloca ptr, align 8
  %8 = alloca ptr, align 8
  %9 = alloca ptr, align 8
  %10 = alloca i64, align 8
  %11 = alloca i32, align 4
  %12 = alloca i32, align 4
  store ptr %0, ptr %5, align 8, !tbaa !8
  store ptr %1, ptr %6, align 8, !tbaa !3
  store ptr %2, ptr %7, align 8, !tbaa !3
  call void @llvm.lifetime.start.p0(i64 8, ptr %8) #7
  store ptr null, ptr %8, align 8, !tbaa !8
  call void @llvm.lifetime.start.p0(i64 8, ptr %9) #7
  store ptr null, ptr %9, align 8, !tbaa !8
  br label %13

13:                                               ; preds = %3
  br label %14

14:                                               ; preds = %13
  br label %15

15:                                               ; preds = %14
  br label %16

16:                                               ; preds = %15
  br label %17

17:                                               ; preds = %16
  br label %18

18:                                               ; preds = %17
  %19 = load ptr, ptr %5, align 8, !tbaa !8
  %20 = icmp ne ptr %19, null
  br i1 %20, label %21, label %39

21:                                               ; preds = %18
  call void @llvm.lifetime.start.p0(i64 8, ptr %10) #7
  %22 = load ptr, ptr %5, align 8, !tbaa !8
  %23 = call i64 @strlen(ptr noundef %22) #6
  store i64 %23, ptr %10, align 8, !tbaa !21
  call void @llvm.lifetime.start.p0(i64 4, ptr %11) #7
  %24 = load i64, ptr %10, align 8, !tbaa !21
  %25 = icmp ugt i64 %24, 8000000
  br i1 %25, label %26, label %27

26:                                               ; preds = %21
  store i32 43, ptr %4, align 4
  store i32 1, ptr %12, align 4
  br label %36

27:                                               ; preds = %21
  %28 = load ptr, ptr %5, align 8, !tbaa !8
  %29 = load i64, ptr %10, align 8, !tbaa !21
  %30 = call i32 @Curl_parse_login_details(ptr noundef %28, i64 noundef %29, ptr noundef %8, ptr noundef %9, ptr noundef null)
  store i32 %30, ptr %11, align 4, !tbaa !22
  %31 = load i32, ptr %11, align 4, !tbaa !22
  %32 = icmp ne i32 %31, 0
  br i1 %32, label %33, label %35

33:                                               ; preds = %27
  %34 = load i32, ptr %11, align 4, !tbaa !22
  store i32 %34, ptr %4, align 4
  store i32 1, ptr %12, align 4
  br label %36

35:                                               ; preds = %27
  store i32 0, ptr %12, align 4
  br label %36

36:                                               ; preds = %35, %33, %26
  call void @llvm.lifetime.end.p0(i64 4, ptr %11) #7
  call void @llvm.lifetime.end.p0(i64 8, ptr %10) #7
  %37 = load i32, ptr %12, align 4
  switch i32 %37, label %50 [
    i32 0, label %38
  ]

38:                                               ; preds = %36
  br label %39

39:                                               ; preds = %38, %18
  %40 = load ptr, ptr @Curl_cfree, align 8, !tbaa !10
  %41 = load ptr, ptr %6, align 8, !tbaa !3
  %42 = load ptr, ptr %41, align 8, !tbaa !8
  call void %40(ptr noundef %42)
  %43 = load ptr, ptr %8, align 8, !tbaa !8
  %44 = load ptr, ptr %6, align 8, !tbaa !3
  store ptr %43, ptr %44, align 8, !tbaa !8
  %45 = load ptr, ptr @Curl_cfree, align 8, !tbaa !10
  %46 = load ptr, ptr %7, align 8, !tbaa !3
  %47 = load ptr, ptr %46, align 8, !tbaa !8
  call void %45(ptr noundef %47)
  %48 = load ptr, ptr %9, align 8, !tbaa !8
  %49 = load ptr, ptr %7, align 8, !tbaa !3
  store ptr %48, ptr %49, align 8, !tbaa !8
  store i32 0, ptr %4, align 4
  store i32 1, ptr %12, align 4
  br label %50

50:                                               ; preds = %39, %36
  call void @llvm.lifetime.end.p0(i64 8, ptr %9) #7
  call void @llvm.lifetime.end.p0(i64 8, ptr %8) #7
  %51 = load i32, ptr %4, align 4
  ret i32 %51
}