; Function Attrs: nounwind uwtable
define internal fastcc i32 @setstropt_userpwd(ptr noundef %0, ptr noundef captures(none) %1, ptr noundef captures(none) %2) unnamed_addr #0 {
  %4 = alloca ptr, align 8
  %5 = alloca ptr, align 8
  call void @llvm.lifetime.start.p0(i64 8, ptr nonnull %4) #10
  store ptr null, ptr %4, align 8, !tbaa !7
  call void @llvm.lifetime.start.p0(i64 8, ptr nonnull %5) #10
  store ptr null, ptr %5, align 8, !tbaa !7
  %.not = icmp eq ptr %0, null
  br i1 %.not, label %11, label %6

6:                                                ; preds = %3
  %7 = tail call i64 @strlen(ptr noundef nonnull dereferenceable(1) %0) #11
  %8 = icmp ugt i64 %7, 8000000
  br i1 %8, label %.thread, label %9

9:                                                ; preds = %6
  %10 = call i32 @Curl_parse_login_details(ptr noundef nonnull %0, i64 noundef %7, ptr noundef nonnull %4, ptr noundef nonnull %5, ptr noundef null) #10
  %.not16 = icmp eq i32 %10, 0
  br i1 %.not16, label %11, label %.thread

11:                                               ; preds = %9, %3
  %12 = load ptr, ptr @Curl_cfree, align 8, !tbaa !3
  %13 = load ptr, ptr %1, align 8, !tbaa !7
  call void %12(ptr noundef %13) #10
  %14 = load ptr, ptr %4, align 8, !tbaa !7
  store ptr %14, ptr %1, align 8, !tbaa !7
  %15 = load ptr, ptr @Curl_cfree, align 8, !tbaa !3
  %16 = load ptr, ptr %2, align 8, !tbaa !7
  call void %15(ptr noundef %16) #10
  %17 = load ptr, ptr %5, align 8, !tbaa !7
  store ptr %17, ptr %2, align 8, !tbaa !7
  br label %.thread

.thread:                                          ; preds = %6, %9, %11
  %.1 = phi i32 [ 0, %11 ], [ %10, %9 ], [ 43, %6 ]
  call void @llvm.lifetime.end.p0(i64 8, ptr nonnull %5) #10
  call void @llvm.lifetime.end.p0(i64 8, ptr nonnull %4) #10
  ret i32 %.1
}